; Function Attrs: mustprogress uwtable
define noundef ptr @_ZN6icu_758ZoneMeta18getCanonicalCLDRIDERKNS_8TimeZoneE(ptr noundef nonnull align 8 dereferenceable(72) %tz) local_unnamed_addr #0 align 2 personality ptr @__gxx_personality_v0 {
entry:
  %status = alloca i32, align 4
  %tzID = alloca %"class.icu_75::UnicodeString", align 8
  %0 = tail call ptr @__dynamic_cast(ptr nonnull %tz, ptr nonnull @_ZTIN6icu_758TimeZoneE, ptr nonnull @_ZTIN6icu_7513OlsonTimeZoneE, i64 0) #12
  %cmp.not = icmp eq ptr %0, null
  br i1 %cmp.not, label %if.end, label %if.then

if.then:                                          ; preds = %entry
  %canonicalID.i = getelementptr inbounds i8, ptr %tz, i64 152
  %1 = load ptr, ptr %canonicalID.i, align 8
  br label %return

if.end:                                           ; preds = %entry
  store i32 0, ptr %status, align 4
  store ptr getelementptr inbounds ({ [13 x ptr] }, ptr @_ZTVN6icu_7513UnicodeStringE, i64 0, i32 0, i64 2), ptr %tzID, align 8
  %fUnion2.i = getelementptr inbounds i8, ptr %tzID, i64 8
  store i16 2, ptr %fUnion2.i, align 8
  %fID.i = getelementptr inbounds i8, ptr %tz, i64 8
  %call.i3 = invoke noundef nonnull align 8 dereferenceable(64) ptr @_ZN6icu_7513UnicodeStringaSERKS0_(ptr noundef nonnull align 8 dereferenceable(64) %tzID, ptr noundef nonnull align 8 dereferenceable(64) %fID.i)
          to label %invoke.cont unwind label %lpad

invoke.cont:                                      ; preds = %if.end
  %call3 = invoke noundef ptr @_ZN6icu_758ZoneMeta18getCanonicalCLDRIDERKNS_13UnicodeStringER10UErrorCode(ptr noundef nonnull align 8 dereferenceable(64) %tzID, ptr noundef nonnull align 4 dereferenceable(4) %status)
          to label %invoke.cont2 unwind label %lpad

invoke.cont2:                                     ; preds = %invoke.cont
  call void @_ZN6icu_7513UnicodeStringD1Ev(ptr noundef nonnull align 8 dereferenceable(64) %tzID) #12
  br label %return

lpad:                                             ; preds = %if.end, %invoke.cont
  %2 = landingpad { ptr, i32 }
          cleanup
  call void @_ZN6icu_7513UnicodeStringD1Ev(ptr noundef nonnull align 8 dereferenceable(64) %tzID) #12
  resume { ptr, i32 } %2

return:                                           ; preds = %invoke.cont2, %if.then
  %retval.0 = phi ptr [ %1, %if.then ], [ %call3, %invoke.cont2 ]
  ret ptr %retval.0
}